target datalayout = "e-m:e-p270:32:32-p271:32:32-p272:64:64-i64:64-i128:128-f80:128-n8:16:32:64-S128"
target triple = "x86_64-pc-linux-gnu"

%"class.cv::Mat" = type { i32, i32, i32, i32, ptr, ptr, ptr, ptr, ptr, ptr, %"struct.cv::MatSize", %"struct.cv::MatStep" }
%"struct.cv::MatSize" = type { ptr }
%"struct.cv::MatStep" = type { ptr, [2 x i64] }
%"class.std::__cxx11::basic_string" = type { %"struct.std::__cxx11::basic_string<char>::_Alloc_hider", i64, %union.anon }
%"struct.std::__cxx11::basic_string<char>::_Alloc_hider" = type { ptr }
%union.anon = type { i64, [8 x i8] }
%"class.std::allocator" = type { i8 }

@.str.11 = private unnamed_addr constant [19 x i8] c"I.depth() == CV_8U\00", align 1
@__func__._Z19ScanImageAndReduceCRN2cv3MatEPKh = private unnamed_addr constant [20 x i8] c"ScanImageAndReduceC\00", align 1
@.str.12 = private unnamed_addr constant [164 x i8] c"generated/home/dtcxzyw/WorkSpace/Projects/compilers/llvm-opt-benchmark/bench/opencv/opencv/samples/cpp/tutorial_code/core/how_to_scan_images/how_to_scan_images.cpp\00", align 1

; Function Attrs: mustprogress nounwind uwtable
define linkonce_odr hidden void @_ZNSt15__new_allocatorIcE10deallocateEPcm(ptr noundef nonnull align 1 dereferenceable(1) %0, ptr noundef %1, i64 noundef %2) #9 comdat align 2 {
  %4 = alloca ptr, align 8
  %5 = alloca ptr, align 8
  %6 = alloca i64, align 8
  store ptr %0, ptr %4, align 8, !tbaa !84
  store ptr %1, ptr %5, align 8, !tbaa !12
  store i64 %2, ptr %6, align 8, !tbaa !58
  %7 = load ptr, ptr %5, align 8, !tbaa !12
  call void @_ZdlPv(ptr noundef %7) #19
  ret void
}

; Function Attrs: mustprogress nounwind uwtable
define linkonce_odr hidden noundef ptr @_ZNSt19__ptr_traits_ptr_toIPKcS0_Lb0EE10pointer_toERS0_(ptr noundef nonnull align 1 dereferenceable(1) %0) #9 comdat align 2 {
  %2 = alloca ptr, align 8
  store ptr %0, ptr %2, align 8, !tbaa !12
  %3 = load ptr, ptr %2, align 8, !tbaa !12
  ret ptr %3
}

; Function Attrs: mustprogress uwtable
define linkonce_odr hidden void @_ZNSt16allocator_traitsISaIcEE10deallocateERS0_Pcm(ptr noundef nonnull align 1 dereferenceable(1) %0, ptr noundef %1, i64 noundef %2) #5 comdat align 2 {
  %4 = alloca ptr, align 8
  %5 = alloca ptr, align 8
  %6 = alloca i64, align 8
  store ptr %0, ptr %4, align 8, !tbaa !29
  store ptr %1, ptr %5, align 8, !tbaa !12
  store i64 %2, ptr %6, align 8, !tbaa !58
  %7 = load ptr, ptr %4, align 8, !tbaa !29
  %8 = load ptr, ptr %5, align 8, !tbaa !12
  %9 = load i64, ptr %6, align 8, !tbaa !58
  call void @_ZNSt15__new_allocatorIcE10deallocateEPcm(ptr noundef nonnull align 1 dereferenceable(1) %7, ptr noundef %8, i64 noundef %9)
  ret void
}

; Function Attrs: mustprogress nounwind uwtable
define available_externally noundef nonnull align 1 dereferenceable(1) ptr @_ZNSt7__cxx1112basic_stringIcSt11char_traitsIcESaIcEE16_M_get_allocatorEv(ptr noundef nonnull align 8 dereferenceable(32) %0) #9 align 2 {
  %2 = alloca ptr, align 8
  store ptr %0, ptr %2, align 8, !tbaa !31
  %3 = load ptr, ptr %2, align 8
  %4 = getelementptr inbounds nuw %"class.std::__cxx11::basic_string", ptr %3, i32 0, i32 0
  ret ptr %4
}

; Function Attrs: mustprogress nounwind uwtable
define available_externally noundef ptr @_ZNKSt7__cxx1112basic_stringIcSt11char_traitsIcESaIcEE13_M_local_dataEv(ptr noundef nonnull align 8 dereferenceable(32) %0) #9 align 2 {
  %2 = alloca ptr, align 8
  store ptr %0, ptr %2, align 8, !tbaa !31
  %3 = load ptr, ptr %2, align 8
  %4 = getelementptr inbounds nuw %"class.std::__cxx11::basic_string", ptr %3, i32 0, i32 2
  %5 = getelementptr inbounds [16 x i8], ptr %4, i64 0, i64 0
  %6 = call noundef ptr @_ZNSt19__ptr_traits_ptr_toIPKcS0_Lb0EE10pointer_toERS0_(ptr noundef nonnull align 1 dereferenceable(1) %5) #3
  ret ptr %6
}

; Function Attrs: mustprogress nounwind uwtable
define available_externally noundef ptr @_ZNKSt7__cxx1112basic_stringIcSt11char_traitsIcESaIcEE7_M_dataEv(ptr noundef nonnull align 8 dereferenceable(32) %0) #9 align 2 {
  %2 = alloca ptr, align 8
  store ptr %0, ptr %2, align 8, !tbaa !31
  %3 = load ptr, ptr %2, align 8
  %4 = getelementptr inbounds nuw %"class.std::__cxx11::basic_string", ptr %3, i32 0, i32 0
  %5 = getelementptr inbounds nuw %"struct.std::__cxx11::basic_string<char>::_Alloc_hider", ptr %4, i32 0, i32 0
  %6 = load ptr, ptr %5, align 8, !tbaa !89
  ret ptr %6
}

; Function Attrs: mustprogress nounwind uwtable
define available_externally void @_ZNSt7__cxx1112basic_stringIcSt11char_traitsIcESaIcEE10_M_destroyEm(ptr noundef nonnull align 8 dereferenceable(32) %0, i64 noundef %1) #9 align 2 personality ptr @__gxx_personality_v0 {
  %3 = alloca ptr, align 8
  %4 = alloca i64, align 8
  %5 = alloca ptr, align 8
  %6 = alloca i32, align 4
  store ptr %0, ptr %3, align 8, !tbaa !31
  store i64 %1, ptr %4, align 8, !tbaa !58
  %7 = load ptr, ptr %3, align 8
  %8 = invoke noundef nonnull align 1 dereferenceable(1) ptr @_ZNSt7__cxx1112basic_stringIcSt11char_traitsIcESaIcEE16_M_get_allocatorEv(ptr noundef nonnull align 8 dereferenceable(32) %7)
          to label %9 unwind label %14

9:                                                ; preds = %2
  %10 = call noundef ptr @_ZNKSt7__cxx1112basic_stringIcSt11char_traitsIcESaIcEE7_M_dataEv(ptr noundef nonnull align 8 dereferenceable(32) %7)
  %11 = load i64, ptr %4, align 8, !tbaa !58
  %12 = add i64 %11, 1
  invoke void @_ZNSt16allocator_traitsISaIcEE10deallocateERS0_Pcm(ptr noundef nonnull align 1 dereferenceable(1) %8, ptr noundef %10, i64 noundef %12)
          to label %13 unwind label %14

13:                                               ; preds = %9
  ret void

14:                                               ; preds = %9, %2
  %15 = landingpad { ptr, i32 }
          filter [0 x ptr] zeroinitializer
  %16 = extractvalue { ptr, i32 } %15, 0
  store ptr %16, ptr %5, align 8
  %17 = extractvalue { ptr, i32 } %15, 1
  store i32 %17, ptr %6, align 4
  br label %18

18:                                               ; preds = %14
  %19 = load ptr, ptr %5, align 8
  call void @__cxa_call_unexpected(ptr %19) #17
  unreachable
}

; Function Attrs: mustprogress uwtable
define available_externally noundef zeroext i1 @_ZNKSt7__cxx1112basic_stringIcSt11char_traitsIcESaIcEE11_M_is_localEv(ptr noundef nonnull align 8 dereferenceable(32) %0) #5 align 2 {
  %2 = alloca i1, align 1
  %3 = alloca ptr, align 8
  store ptr %0, ptr %3, align 8, !tbaa !31
  %4 = load ptr, ptr %3, align 8
  %5 = call noundef ptr @_ZNKSt7__cxx1112basic_stringIcSt11char_traitsIcESaIcEE7_M_dataEv(ptr noundef nonnull align 8 dereferenceable(32) %4)
  %6 = call noundef ptr @_ZNKSt7__cxx1112basic_stringIcSt11char_traitsIcESaIcEE13_M_local_dataEv(ptr noundef nonnull align 8 dereferenceable(32) %4)
  %7 = icmp eq ptr %5, %6
  br i1 %7, label %8, label %14

8:                                                ; preds = %1
  %9 = getelementptr inbounds nuw %"class.std::__cxx11::basic_string", ptr %4, i32 0, i32 1
  %10 = load i64, ptr %9, align 8, !tbaa !86
  %11 = icmp ugt i64 %10, 15
  br i1 %11, label %12, label %13

12:                                               ; preds = %8
  unreachable

13:                                               ; preds = %8
  store i1 true, ptr %2, align 1
  br label %15

14:                                               ; preds = %1
  store i1 false, ptr %2, align 1
  br label %15

15:                                               ; preds = %14, %13
  %16 = load i1, ptr %2, align 1
  ret i1 %16
}

; Function Attrs: noinline noreturn nounwind uwtable
define linkonce_odr hidden void @__clang_call_terminate(ptr noundef %0) #12 comdat {
  %2 = call ptr @__cxa_begin_catch(ptr %0) #3
  call void @_ZSt9terminatev() #18
  unreachable
}

; Function Attrs: mustprogress uwtable
define available_externally void @_ZNSt7__cxx1112basic_stringIcSt11char_traitsIcESaIcEE10_M_disposeEv(ptr noundef nonnull align 8 dereferenceable(32) %0) #5 align 2 {
  %2 = alloca ptr, align 8
  store ptr %0, ptr %2, align 8, !tbaa !31
  %3 = load ptr, ptr %2, align 8
  %4 = call noundef zeroext i1 @_ZNKSt7__cxx1112basic_stringIcSt11char_traitsIcESaIcEE11_M_is_localEv(ptr noundef nonnull align 8 dereferenceable(32) %3)
  br i1 %4, label %8, label %5

5:                                                ; preds = %1
  %6 = getelementptr inbounds nuw %"class.std::__cxx11::basic_string", ptr %3, i32 0, i32 2
  %7 = load i64, ptr %6, align 8, !tbaa !16
  call void @_ZNSt7__cxx1112basic_stringIcSt11char_traitsIcESaIcEE10_M_destroyEm(ptr noundef nonnull align 8 dereferenceable(32) %3, i64 noundef %7) #3
  br label %8

8:                                                ; preds = %5, %1
  ret void
}

; Function Attrs: mustprogress nounwind uwtable
define linkonce_odr hidden void @_ZNSt15__new_allocatorIcEC2Ev(ptr noundef nonnull align 1 dereferenceable(1) %0) unnamed_addr #9 comdat align 2 {
  %2 = alloca ptr, align 8
  store ptr %0, ptr %2, align 8, !tbaa !84
  ret void
}

; Function Attrs: inlinehint mustprogress nounwind uwtable
define linkonce_odr hidden noundef ptr @_ZN2cv3Mat3ptrIhEEPT_i(ptr noundef nonnull align 8 dereferenceable(96) %0, i32 noundef %1) #10 comdat align 2 {
  %3 = alloca ptr, align 8
  %4 = alloca i32, align 4
  store ptr %0, ptr %3, align 8, !tbaa !37
  store i32 %1, ptr %4, align 4, !tbaa !4
  %5 = load ptr, ptr %3, align 8
  %6 = getelementptr inbounds nuw %"class.cv::Mat", ptr %5, i32 0, i32 4
  %7 = load ptr, ptr %6, align 8, !tbaa !56
  %8 = getelementptr inbounds nuw %"class.cv::Mat", ptr %5, i32 0, i32 11
  %9 = getelementptr inbounds nuw %"struct.cv::MatStep", ptr %8, i32 0, i32 0
  %10 = load ptr, ptr %9, align 8, !tbaa !57
  %11 = getelementptr inbounds i64, ptr %10, i64 0
  %12 = load i64, ptr %11, align 8, !tbaa !58
  %13 = load i32, ptr %4, align 4, !tbaa !4
  %14 = sext i32 %13 to i64
  %15 = mul i64 %12, %14
  %16 = getelementptr inbounds nuw i8, ptr %7, i64 %15
  ret ptr %16
}

; Function Attrs: inlinehint mustprogress nounwind uwtable
define linkonce_odr hidden noundef zeroext i1 @_ZNK2cv3Mat12isContinuousEv(ptr noundef nonnull align 8 dereferenceable(96) %0) #10 comdat align 2 {
  %2 = alloca ptr, align 8
  store ptr %0, ptr %2, align 8, !tbaa !37
  %3 = load ptr, ptr %2, align 8
  %4 = getelementptr inbounds nuw %"class.cv::Mat", ptr %3, i32 0, i32 0
  %5 = load i32, ptr %4, align 8, !tbaa !64
  %6 = and i32 %5, 16384
  %7 = icmp ne i32 %6, 0
  ret i1 %7
}

; Function Attrs: inlinehint mustprogress nounwind uwtable
define linkonce_odr hidden noundef i32 @_ZNK2cv3Mat8channelsEv(ptr noundef nonnull align 8 dereferenceable(96) %0) #10 comdat align 2 {
  %2 = alloca ptr, align 8
  store ptr %0, ptr %2, align 8, !tbaa !37
  %3 = load ptr, ptr %2, align 8
  %4 = getelementptr inbounds nuw %"class.cv::Mat", ptr %3, i32 0, i32 0
  %5 = load i32, ptr %4, align 8, !tbaa !64
  %6 = and i32 %5, 4088
  %7 = ashr i32 %6, 3
  %8 = add nsw i32 %7, 1
  ret i32 %8
}

; Function Attrs: mustprogress nounwind uwtable
define linkonce_odr hidden void @_ZNSt15__new_allocatorIcED2Ev(ptr noundef nonnull align 1 dereferenceable(1) %0) unnamed_addr #9 comdat align 2 {
  %2 = alloca ptr, align 8
  store ptr %0, ptr %2, align 8, !tbaa !84
  ret void
}

; Function Attrs: mustprogress nounwind uwtable
define available_externally void @_ZNSt7__cxx1112basic_stringIcSt11char_traitsIcESaIcEED2Ev(ptr noundef nonnull align 8 dereferenceable(32) %0) unnamed_addr #9 align 2 personality ptr @__gxx_personality_v0 {
  %2 = alloca ptr, align 8
  store ptr %0, ptr %2, align 8, !tbaa !31
  %3 = load ptr, ptr %2, align 8
  invoke void @_ZNSt7__cxx1112basic_stringIcSt11char_traitsIcESaIcEE10_M_disposeEv(ptr noundef nonnull align 8 dereferenceable(32) %3)
          to label %4 unwind label %6

4:                                                ; preds = %1
  %5 = getelementptr inbounds nuw %"class.std::__cxx11::basic_string", ptr %3, i32 0, i32 0
  call void @_ZNSt15__new_allocatorIcED2Ev(ptr noundef nonnull align 8 dereferenceable(8) %5) #3
  ret void

6:                                                ; preds = %1
  %7 = landingpad { ptr, i32 }
          catch ptr null
  %8 = extractvalue { ptr, i32 } %7, 0
  call void @__clang_call_terminate(ptr %8) #18
  unreachable
}

; Function Attrs: mustprogress nounwind uwtable
define available_externally void @_ZNSaIcEC2Ev(ptr noundef nonnull align 1 dereferenceable(1) %0) unnamed_addr #9 align 2 {
  %2 = alloca ptr, align 8
  store ptr %0, ptr %2, align 8, !tbaa !29
  %3 = load ptr, ptr %2, align 8
  call void @_ZNSt15__new_allocatorIcEC2Ev(ptr noundef nonnull align 1 dereferenceable(1) %3) #3
  ret void
}

; Function Attrs: inlinehint mustprogress nounwind uwtable
define linkonce_odr hidden noundef i32 @_ZNK2cv3Mat5depthEv(ptr noundef nonnull align 8 dereferenceable(96) %0) #10 comdat align 2 {
  %2 = alloca ptr, align 8
  store ptr %0, ptr %2, align 8, !tbaa !37
  %3 = load ptr, ptr %2, align 8
  %4 = getelementptr inbounds nuw %"class.cv::Mat", ptr %3, i32 0, i32 0
  %5 = load i32, ptr %4, align 8, !tbaa !64
  %6 = and i32 %5, 7
  ret i32 %6
}

; Function Attrs: mustprogress uwtable
define hidden noundef nonnull align 8 dereferenceable(96) ptr @_Z19ScanImageAndReduceCRN2cv3MatEPKh(ptr noundef nonnull align 8 dereferenceable(96) %0, ptr noundef %1) #5 personality ptr @__gxx_personality_v0 {
  %3 = alloca ptr, align 8
  %4 = alloca ptr, align 8
  %5 = alloca %"class.std::__cxx11::basic_string", align 8
  %6 = alloca %"class.std::allocator", align 1
  %7 = alloca ptr, align 8
  %8 = alloca i32, align 4
  %9 = alloca i32, align 4
  %10 = alloca i32, align 4
  %11 = alloca i32, align 4
  %12 = alloca i32, align 4
  %13 = alloca i32, align 4
  %14 = alloca ptr, align 8
  store ptr %0, ptr %3, align 8, !tbaa !37
  store ptr %1, ptr %4, align 8, !tbaa !12
  br label %15

15:                                               ; preds = %2
  %16 = load ptr, ptr %3, align 8, !tbaa !37
  %17 = call noundef i32 @_ZNK2cv3Mat5depthEv(ptr noundef nonnull align 8 dereferenceable(96) %16)
  %18 = icmp eq i32 %17, 0
  br i1 %18, label %19, label %20

19:                                               ; preds = %15
  br label %32

20:                                               ; preds = %15
  call void @llvm.lifetime.start.p0(i64 32, ptr %5) #3
  call void @llvm.lifetime.start.p0(i64 1, ptr %6) #3
  call void @_ZNSaIcEC2Ev(ptr noundef nonnull align 1 dereferenceable(1) %6) #3
  invoke void @_ZNSt7__cxx1112basic_stringIcSt11char_traitsIcESaIcEEC2EPKcRKS3_(ptr noundef nonnull align 8 dereferenceable(32) %5, ptr noundef @.str.11, ptr noundef nonnull align 1 dereferenceable(1) %6)
          to label %21 unwind label %23

21:                                               ; preds = %20
  invoke void @_ZN2cv5errorEiRKNSt7__cxx1112basic_stringIcSt11char_traitsIcESaIcEEEPKcS9_i(i32 noundef -215, ptr noundef nonnull align 8 dereferenceable(32) %5, ptr noundef @__func__._Z19ScanImageAndReduceCRN2cv3MatEPKh, ptr noundef @.str.12, i32 noundef 137) #17
          to label %22 unwind label %27

22:                                               ; preds = %21
  unreachable

23:                                               ; preds = %20
  %24 = landingpad { ptr, i32 }
          cleanup
  %25 = extractvalue { ptr, i32 } %24, 0
  store ptr %25, ptr %7, align 8
  %26 = extractvalue { ptr, i32 } %24, 1
  store i32 %26, ptr %8, align 4
  br label %31

27:                                               ; preds = %21
  %28 = landingpad { ptr, i32 }
          cleanup
  %29 = extractvalue { ptr, i32 } %28, 0
  store ptr %29, ptr %7, align 8
  %30 = extractvalue { ptr, i32 } %28, 1
  store i32 %30, ptr %8, align 4
  call void @_ZNSt7__cxx1112basic_stringIcSt11char_traitsIcESaIcEED2Ev(ptr noundef nonnull align 8 dereferenceable(32) %5) #3
  br label %31

31:                                               ; preds = %27, %23
  call void @_ZNSt15__new_allocatorIcED2Ev(ptr noundef nonnull align 1 dereferenceable(1) %6) #3
  call void @llvm.lifetime.end.p0(i64 1, ptr %6) #3
  call void @llvm.lifetime.end.p0(i64 32, ptr %5) #3
  br label %86

32:                                               ; preds = %19
  br label %33

33:                                               ; preds = %32
  call void @llvm.lifetime.start.p0(i64 4, ptr %9) #3
  %34 = load ptr, ptr %3, align 8, !tbaa !37
  %35 = call noundef i32 @_ZNK2cv3Mat8channelsEv(ptr noundef nonnull align 8 dereferenceable(96) %34)
  store i32 %35, ptr %9, align 4, !tbaa !4
  call void @llvm.lifetime.start.p0(i64 4, ptr %10) #3
  %36 = load ptr, ptr %3, align 8, !tbaa !37
  %37 = getelementptr inbounds nuw %"class.cv::Mat", ptr %36, i32 0, i32 2
  %38 = load i32, ptr %37, align 8, !tbaa !39
  store i32 %38, ptr %10, align 4, !tbaa !4
  call void @llvm.lifetime.start.p0(i64 4, ptr %11) #3
  %39 = load ptr, ptr %3, align 8, !tbaa !37
  %40 = getelementptr inbounds nuw %"class.cv::Mat", ptr %39, i32 0, i32 3
  %41 = load i32, ptr %40, align 4, !tbaa !47
  %42 = load i32, ptr %9, align 4, !tbaa !4
  %43 = mul nsw i32 %41, %42
  store i32 %43, ptr %11, align 4, !tbaa !4
  %44 = load ptr, ptr %3, align 8, !tbaa !37
  %45 = call noundef zeroext i1 @_ZNK2cv3Mat12isContinuousEv(ptr noundef nonnull align 8 dereferenceable(96) %44)
  br i1 %45, label %46, label %50

46:                                               ; preds = %33
  %47 = load i32, ptr %10, align 4, !tbaa !4
  %48 = load i32, ptr %11, align 4, !tbaa !4
  %49 = mul nsw i32 %48, %47
  store i32 %49, ptr %11, align 4, !tbaa !4
  store i32 1, ptr %10, align 4, !tbaa !4
  br label %50

50:                                               ; preds = %46, %33
  call void @llvm.lifetime.start.p0(i64 4, ptr %12) #3
  call void @llvm.lifetime.start.p0(i64 4, ptr %13) #3
  call void @llvm.lifetime.start.p0(i64 8, ptr %14) #3
  store i32 0, ptr %12, align 4, !tbaa !4
  br label %51

51:                                               ; preds = %81, %50
  %52 = load i32, ptr %12, align 4, !tbaa !4
  %53 = load i32, ptr %10, align 4, !tbaa !4
  %54 = icmp slt i32 %52, %53
  br i1 %54, label %55, label %84

55:                                               ; preds = %51
  %56 = load ptr, ptr %3, align 8, !tbaa !37
  %57 = load i32, ptr %12, align 4, !tbaa !4
  %58 = call noundef ptr @_ZN2cv3Mat3ptrIhEEPT_i(ptr noundef nonnull align 8 dereferenceable(96) %56, i32 noundef %57)
  store ptr %58, ptr %14, align 8, !tbaa !12
  store i32 0, ptr %13, align 4, !tbaa !4
  br label %59

59:                                               ; preds = %77, %55
  %60 = load i32, ptr %13, align 4, !tbaa !4
  %61 = load i32, ptr %11, align 4, !tbaa !4
  %62 = icmp slt i32 %60, %61
  br i1 %62, label %63, label %80

63:                                               ; preds = %59
  %64 = load ptr, ptr %4, align 8, !tbaa !12
  %65 = load ptr, ptr %14, align 8, !tbaa !12
  %66 = load i32, ptr %13, align 4, !tbaa !4
  %67 = sext i32 %66 to i64
  %68 = getelementptr inbounds i8, ptr %65, i64 %67
  %69 = load i8, ptr %68, align 1, !tbaa !16
  %70 = zext i8 %69 to i64
  %71 = getelementptr inbounds nuw i8, ptr %64, i64 %70
  %72 = load i8, ptr %71, align 1, !tbaa !16
  %73 = load ptr, ptr %14, align 8, !tbaa !12
  %74 = load i32, ptr %13, align 4, !tbaa !4
  %75 = sext i32 %74 to i64
  %76 = getelementptr inbounds i8, ptr %73, i64 %75
  store i8 %72, ptr %76, align 1, !tbaa !16
  br label %77

77:                                               ; preds = %63
  %78 = load i32, ptr %13, align 4, !tbaa !4
  %79 = add nsw i32 %78, 1
  store i32 %79, ptr %13, align 4, !tbaa !4
  br label %59, !llvm.loop !48

80:                                               ; preds = %59
  br label %81

81:                                               ; preds = %80
  %82 = load i32, ptr %12, align 4, !tbaa !4
  %83 = add nsw i32 %82, 1
  store i32 %83, ptr %12, align 4, !tbaa !4
  br label %51, !llvm.loop !49

84:                                               ; preds = %51
  %85 = load ptr, ptr %3, align 8, !tbaa !37
  call void @llvm.lifetime.end.p0(i64 8, ptr %14) #3
  call void @llvm.lifetime.end.p0(i64 4, ptr %13) #3
  call void @llvm.lifetime.end.p0(i64 4, ptr %12) #3
  call void @llvm.lifetime.end.p0(i64 4, ptr %11) #3
  call void @llvm.lifetime.end.p0(i64 4, ptr %10) #3
  call void @llvm.lifetime.end.p0(i64 4, ptr %9) #3
  ret ptr %85

86:                                               ; preds = %31
  %87 = load ptr, ptr %7, align 8
  %88 = load i32, ptr %8, align 4
  %89 = insertvalue { ptr, i32 } poison, ptr %87, 0
  %90 = insertvalue { ptr, i32 } %89, i32 %88, 1
  resume { ptr, i32 } %90
}