; Function Attrs: mustprogress uwtable
define hidden noundef nonnull align 8 dereferenceable(96) ptr @_Z19ScanImageAndReduceCRN2cv3MatEPKh(ptr noundef nonnull readonly returned align 8 dereferenceable(96) %0, ptr noundef readonly captures(none) %1) local_unnamed_addr #5 personality ptr @__gxx_personality_v0 {
  %3 = alloca %"class.std::__cxx11::basic_string", align 8
  %4 = alloca %"class.std::allocator", align 1
  %5 = load i32, ptr %0, align 8, !tbaa !65
  %6 = and i32 %5, 7
  %7 = icmp eq i32 %6, 0
  br i1 %7, label %18, label %8

8:                                                ; preds = %2
  call void @llvm.lifetime.start.p0(i64 32, ptr nonnull %3) #17
  call void @llvm.lifetime.start.p0(i64 1, ptr nonnull %4) #17
  call void @_ZNSt7__cxx1112basic_stringIcSt11char_traitsIcESaIcEEC2EPKcRKS3_(ptr noundef nonnull align 8 dereferenceable(32) %3, ptr noundef nonnull @.str.11, ptr noundef nonnull align 1 dereferenceable(1) %4)
  invoke void @_ZN2cv5errorEiRKNSt7__cxx1112basic_stringIcSt11char_traitsIcESaIcEEEPKcS9_i(i32 noundef -215, ptr noundef nonnull align 8 dereferenceable(32) %3, ptr noundef nonnull @__func__._Z19ScanImageAndReduceCRN2cv3MatEPKh, ptr noundef nonnull @.str.12, i32 noundef 137) #16
          to label %9 unwind label %10

9:                                                ; preds = %8
  unreachable

10:                                               ; preds = %8
  %11 = landingpad { ptr, i32 }
          cleanup
  %12 = load ptr, ptr %3, align 8, !tbaa !39
  %13 = getelementptr inbounds nuw i8, ptr %3, i64 16
  %14 = icmp eq ptr %12, %13
  br i1 %14, label %_ZNKSt7__cxx1112basic_stringIcSt11char_traitsIcESaIcEE11_M_is_localEv.exit.thread.i.i, label %_ZNKSt7__cxx1112basic_stringIcSt11char_traitsIcESaIcEE11_M_is_localEv.exit.i.i

_ZNKSt7__cxx1112basic_stringIcSt11char_traitsIcESaIcEE11_M_is_localEv.exit.thread.i.i: ; preds = %10
  %15 = getelementptr inbounds nuw i8, ptr %3, i64 8
  %16 = load i64, ptr %15, align 8, !tbaa !41
  %17 = icmp ult i64 %16, 16
  call void @llvm.assume(i1 %17)
  br label %_ZNSt7__cxx1112basic_stringIcSt11char_traitsIcESaIcEED2Ev.exit

_ZNKSt7__cxx1112basic_stringIcSt11char_traitsIcESaIcEE11_M_is_localEv.exit.i.i: ; preds = %10
  call void @_ZdlPv(ptr noundef %12) #18
  br label %_ZNSt7__cxx1112basic_stringIcSt11char_traitsIcESaIcEED2Ev.exit

_ZNSt7__cxx1112basic_stringIcSt11char_traitsIcESaIcEED2Ev.exit: ; preds = %_ZNKSt7__cxx1112basic_stringIcSt11char_traitsIcESaIcEE11_M_is_localEv.exit.i.i, %_ZNKSt7__cxx1112basic_stringIcSt11char_traitsIcESaIcEE11_M_is_localEv.exit.thread.i.i
  call void @llvm.lifetime.end.p0(i64 1, ptr nonnull %4) #17
  call void @llvm.lifetime.end.p0(i64 32, ptr nonnull %3) #17
  resume { ptr, i32 } %11

18:                                               ; preds = %2
  %19 = lshr exact i32 %5, 3
  %20 = and i32 %19, 511
  %21 = add nuw nsw i32 %20, 1
  %22 = getelementptr inbounds nuw i8, ptr %0, i64 8
  %23 = load i32, ptr %22, align 8, !tbaa !66
  %24 = getelementptr inbounds nuw i8, ptr %0, i64 12
  %25 = load i32, ptr %24, align 4, !tbaa !67
  %26 = mul i32 %25, %21
  %27 = and i32 %5, 16384
  %.not = icmp eq i32 %27, 0
  %spec.select = select i1 %.not, i32 %23, i32 1
  %28 = select i1 %.not, i32 1, i32 %23
  %spec.select29 = mul i32 %26, %28
  %29 = icmp sgt i32 %spec.select, 0
  br i1 %29, label %.lr.ph33, label %._crit_edge34

.lr.ph33:                                         ; preds = %18
  %30 = getelementptr inbounds nuw i8, ptr %0, i64 16
  %31 = getelementptr inbounds nuw i8, ptr %0, i64 72
  %32 = icmp sgt i32 %spec.select29, 0
  br i1 %32, label %.lr.ph.us.preheader, label %._crit_edge34

.lr.ph.us.preheader:                              ; preds = %.lr.ph33
  %wide.trip.count40 = zext nneg i32 %spec.select to i64
  %wide.trip.count = zext nneg i32 %spec.select29 to i64
  br label %.lr.ph.us

.lr.ph.us:                                        ; preds = %.lr.ph.us.preheader, %._crit_edge.us
  %indvars.iv37 = phi i64 [ 0, %.lr.ph.us.preheader ], [ %indvars.iv.next38, %._crit_edge.us ]
  %33 = load ptr, ptr %30, align 8, !tbaa !49
  %34 = load ptr, ptr %31, align 8, !tbaa !68
  %35 = load i64, ptr %34, align 8, !tbaa !38
  %36 = mul i64 %35, %indvars.iv37
  %37 = getelementptr inbounds nuw i8, ptr %33, i64 %36
  br label %38

38:                                               ; preds = %.lr.ph.us, %38
  %indvars.iv = phi i64 [ 0, %.lr.ph.us ], [ %indvars.iv.next, %38 ]
  %39 = getelementptr inbounds nuw i8, ptr %37, i64 %indvars.iv
  %40 = load i8, ptr %39, align 1, !tbaa !33
  %41 = zext i8 %40 to i64
  %42 = getelementptr inbounds nuw i8, ptr %1, i64 %41
  %43 = load i8, ptr %42, align 1, !tbaa !33
  store i8 %43, ptr %39, align 1, !tbaa !33
  %indvars.iv.next = add nuw nsw i64 %indvars.iv, 1
  %exitcond.not = icmp eq i64 %indvars.iv.next, %wide.trip.count
  br i1 %exitcond.not, label %._crit_edge.us, label %38, !llvm.loop !69

._crit_edge.us:                                   ; preds = %38
  %indvars.iv.next38 = add nuw nsw i64 %indvars.iv37, 1
  %exitcond41.not = icmp eq i64 %indvars.iv.next38, %wide.trip.count40
  br i1 %exitcond41.not, label %._crit_edge34, label %.lr.ph.us, !llvm.loop !70

._crit_edge34:                                    ; preds = %._crit_edge.us, %.lr.ph33, %18
  ret ptr %0
}